(dp0
S'Date'
p1
cobspy.core.utcdatetime
UTCDateTime
p2
(S'\x07\xd9\n\x1c\x0e\x028\x07\xe5A'
p3
tp4
Rp5
sS'CZ'
p6
(dp7
S'NKC'
p8
(dp9
S''
p10
(lp11
(lp12
S'BHE'
p13
aS'BHN'
p14
aS'BHZ'
p15
aasssS'NZ'
p16
(dp17
S'CRLZ'
p18
(dp19
S'10'
p20
(lp21
(lp22
S'HHE'
p23
aS'HHN'
p24
aS'HHZ'
p25
aasssS'BW'
p26
(dp27
S'RWMO'
p28
(dp29
g10
(lp30
(lp31
S'AEX'
p32
aS'AEY'
p33
aS'EHE'
p34
aS'EHN'
p35
aS'EHZ'
p36
aS'SHE'
p37
aS'SHN'
p38
aS'SHZ'
p39
aassS'FURT'
p40
(dp41
g10
(lp42
(lp43
S'AEX'
p44
aS'AEY'
p45
aS'EHE'
p46
aS'EHN'
p47
aS'EHZ'
p48
aS'SHE'
p49
aS'SHN'
p50
aS'SHZ'
p51
aassS'OBER'
p52
(dp53
g10
(lp54
(lp55
S'AEX'
p56
aS'AEY'
p57
aS'EHE'
p58
aS'EHN'
p59
aS'EHZ'
p60
aS'SHE'
p61
aS'SHN'
p62
aS'SHZ'
p63
aassS'NZC2'
p64
(dp65
g10
(lp66
(lp67
S'BAZ'
p68
aassS'PART'
p69
(dp70
g10
(lp71
(lp72
S'EHE'
p73
aS'EHN'
p74
aS'EHZ'
p75
aS'SHE'
p76
aS'SHN'
p77
aS'SHZ'
p78
aassS'DHFO'
p79
(dp80
g10
(lp81
(lp82
S'EHE'
p83
aS'EHN'
p84
aS'EHZ'
p85
aS'SHE'
p86
aS'SHN'
p87
aS'SHZ'
p88
aassS'MZEK'
p89
(dp90
g10
(lp91
(lp92
S'EHE'
p93
aS'EHN'
p94
aS'EHZ'
p95
aS'SHE'
p96
aS'SHN'
p97
aS'SHZ'
p98
aassS'MSBB'
p99
(dp100
g10
(lp101
(lp102
S'AEX'
p103
aS'AEY'
p104
aS'EHE'
p105
aS'EHN'
p106
aS'EHZ'
p107
aS'SHE'
p108
aS'SHN'
p109
aS'SHZ'
p110
aassS'ROTZ'
p111
(dp112
g10
(lp113
(lp114
S'AEX'
p115
aS'AEY'
p116
aS'EHE'
p117
aS'EHN'
p118
aS'EHZ'
p119
aS'SHE'
p120
aS'SHN'
p121
aS'SHZ'
p122
aassS'MASC'
p123
(dp124
g10
(lp125
(lp126
S'EHE'
p127
aS'EHN'
p128
aS'EHZ'
p129
aassS'RTBM'
p130
(dp131
g10
(lp132
(lp133
S'EH1'
p134
aS'EH2'
p135
aS'EH3'
p136
aS'EHE'
p137
aS'EHN'
p138
aS'EHZ'
p139
aS'HHE'
p140
aS'HHN'
p141
aS'HHZ'
p142
aS'HNE'
p143
aS'SH1'
p144
aS'SH2'
p145
aS'SH3'
p146
aS'SHE'
p147
aS'SHN'
p148
aS'SHZ'
p149
aasS'3'
p150
(lp151
(lp152
asS'2'
p153
(lp154
(lp155
asS'4'
p156
(lp157
(lp158
assS'MHAI'
p159
(dp160
g10
(lp161
(lp162
S'EHE'
p163
aS'EHN'
p164
aS'EHZ'
p165
aS'SHE'
p166
aS'SHN'
p167
aS'SHZ'
p168
aassS'MANZ'
p169
(dp170
g10
(lp171
(lp172
S'AEX'
p173
aS'AEY'
p174
aS'EHE'
p175
aS'EHN'
p176
aS'EHZ'
p177
aS'SHE'
p178
aS'SHN'
p179
aS'SHZ'
p180
aassS'MKON'
p181
(dp182
g10
(lp183
(lp184
S'EHE'
p185
aS'EHN'
p186
aS'EHZ'
p187
aS'SHE'
p188
aS'SHN'
p189
aS'SHZ'
p190
aassS'BGLD'
p191
(dp192
g10
(lp193
(lp194
S'EHE'
p195
aS'EHN'
p196
aS'EHZ'
p197
aS'SHE'
p198
aS'SHN'
p199
aS'SHZ'
p200
aassS'MROB'
p201
(dp202
g10
(lp203
(lp204
S'AEX'
p205
aS'AEY'
p206
aS'EHE'
p207
aS'EHN'
p208
aS'EHZ'
p209
aS'SHE'
p210
aS'SHN'
p211
aS'SHZ'
p212
aassS'BW01'
p213
(dp214
g10
(lp215
(lp216
S'EHE'
p217
aS'EHN'
p218
aS'EHZ'
p219
aassS'RNON'
p220
(dp221
g10
(lp222
(lp223
S'AEX'
p224
aS'AEY'
p225
aS'EHE'
p226
aS'EHN'
p227
aS'EHZ'
p228
aS'SHE'
p229
aS'SHN'
p230
aS'SHZ'
p231
aassS'RTVS'
p232
(dp233
g10
(lp234
(lp235
S'EHE'
p236
aS'EHN'
p237
aS'EHZ'
p238
aS'HHE'
p239
aS'HHN'
p240
aS'HHZ'
p241
aS'SHE'
p242
aS'SHN'
p243
aS'SHZ'
p244
aassS'OBHA'
p245
(dp246
g10
(lp247
(lp248
S'EHE'
p249
aS'EHN'
p250
aS'EHZ'
p251
aS'SHE'
p252
aS'SHN'
p253
aS'SHZ'
p254
aassS'RTBE'
p255
(dp256
g10
(lp257
(lp258
S'AEX'
p259
aS'AEY'
p260
aS'EHE'
p261
aS'EHN'
p262
aS'EHZ'
p263
aS'SHE'
p264
aS'SHN'
p265
aS'SHZ'
p266
aassS'RLAS'
p267
(dp268
g10
(lp269
(lp270
S'BAZ'
p271
aassS'MGBB'
p272
(dp273
g10
(lp274
(lp275
S'AEX'
p276
aS'AEY'
p277
aS'EHE'
p278
aS'EHN'
p279
aS'EHZ'
p280
aS'SHE'
p281
aS'SHN'
p282
aS'SHZ'
p283
aassS'VIEL'
p284
(dp285
g10
(lp286
(lp287
S'AEX'
p288
aS'AEY'
p289
aS'EHE'
p290
aS'EHN'
p291
aS'EHZ'
p292
aS'SHE'
p293
aS'SHN'
p294
aS'SHZ'
p295
aassS'RNHA'
p296
(dp297
g10
(lp298
(lp299
S'AEX'
p300
aS'AEY'
p301
aS'EHE'
p302
aS'EHN'
p303
aS'EHZ'
p304
aS'SHE'
p305
aS'SHN'
p306
aS'SHZ'
p307
aassS'ZUGS'
p308
(dp309
g10
(lp310
(lp311
S'AEX'
p312
aS'AEY'
p313
aS'EHE'
p314
aS'EHN'
p315
aS'EHZ'
p316
aS'SHE'
p317
aS'SHN'
p318
aS'SHZ'
p319
aassS'NZG0'
p320
(dp321
g10
(lp322
(lp323
S'BAN'
p324
aassS'HROE'
p325
(dp326
g10
(lp327
(lp328
S'AEX'
p329
aS'AEY'
p330
aS'EHE'
p331
aS'EHN'
p332
aS'EHZ'
p333
aS'SHE'
p334
aS'SHN'
p335
aS'SHZ'
p336
aassS'RTSH'
p337
(dp338
g10
(lp339
(lp340
S'AEX'
p341
aS'AEY'
p342
aS'EHE'
p343
aS'EHN'
p344
aS'EHZ'
p345
aS'SHE'
p346
aS'SHN'
p347
aS'SHZ'
p348
aassS'RJOB'
p349
(dp350
g10
(lp351
(lp352
S'AEX'
p353
aS'AEY'
p354
aS'EHE'
p355
aS'EHN'
p356
aS'EHZ'
p357
aS'SHE'
p358
aS'SHN'
p359
aS'SHZ'
p360
aassS'NORI'
p361
(dp362
g10
(lp363
(lp364
S'AEX'
p365
aS'AEY'
p366
aS'EHE'
p367
aS'EHN'
p368
aS'EHZ'
p369
aS'SHE'
p370
aS'SHN'
p371
aS'SHZ'
p372
aassS'WETR'
p373
(dp374
g10
(lp375
(lp376
S'BAN'
p377
aS'EHZ'
p378
aassS'RMOA'
p379
(dp380
g10
(lp381
(lp382
S'AEX'
p383
aS'AEY'
p384
aS'EHE'
p385
aS'EHN'
p386
aS'EHZ'
p387
aS'SHE'
p388
aS'SHN'
p389
aS'SHZ'
p390
aasssS'GR'
p391
(dp392
S'FUR'
p393
(dp394
g10
(lp395
(lp396
S'BHE'
p397
aS'BHN'
p398
aS'BHZ'
p399
aS'HHE'
p400
aS'HHN'
p401
aS'HHZ'
p402
aS'LHE'
p403
aS'LHN'
p404
aS'LHZ'
p405
aassS'WET'
p406
(dp407
g10
(lp408
(lp409
S'BHE'
p410
aS'BHN'
p411
aS'BHZ'
p412
aS'HHE'
p413
aS'HHN'
p414
aS'HHZ'
p415
aS'LHE'
p416
aS'LHN'
p417
aS'LHZ'
p418
aasss.